target datalayout = "e-m:e-p270:32:32-p271:32:32-p272:64:64-i64:64-i128:128-f80:128-n8:16:32:64-S128"
target triple = "x86_64-pc-linux-gnu"

%struct.TT_NameRec_ = type { i16, i16, i16, i16, i16, i64, ptr }

; Function Attrs: nounwind uwtable
define internal ptr @tt_name_ascii_from_utf16(ptr noundef %0, ptr noundef %1) #0 {
  %3 = alloca ptr, align 8
  %4 = alloca ptr, align 8
  %5 = alloca ptr, align 8
  %6 = alloca ptr, align 8
  %7 = alloca i32, align 4
  %8 = alloca i32, align 4
  %9 = alloca i32, align 4
  %10 = alloca ptr, align 8
  %11 = alloca i32, align 4
  store ptr %0, ptr %4, align 8
  store ptr %1, ptr %5, align 8
  store ptr null, ptr %6, align 8
  %12 = load ptr, ptr %4, align 8
  %13 = getelementptr inbounds %struct.TT_NameRec_, ptr %12, i32 0, i32 6
  %14 = load ptr, ptr %13, align 8
  store ptr %14, ptr %10, align 8
  %15 = load ptr, ptr %4, align 8
  %16 = getelementptr inbounds %struct.TT_NameRec_, ptr %15, i32 0, i32 4
  %17 = load i16, ptr %16, align 8
  %18 = zext i16 %17 to i32
  %19 = udiv i32 %18, 2
  store i32 %19, ptr %7, align 4
  %20 = load ptr, ptr %5, align 8
  %21 = load i32, ptr %7, align 4
  %22 = add i32 %21, 1
  %23 = zext i32 %22 to i64
  %24 = call ptr @ft_mem_qrealloc(ptr noundef %20, i64 noundef 1, i64 noundef 0, i64 noundef %23, ptr noundef null, ptr noundef %11)
  store ptr %24, ptr %6, align 8
  %25 = load i32, ptr %11, align 4
  %26 = icmp ne i32 %25, 0
  br i1 %26, label %27, label %28

27:                                               ; preds = %2
  store ptr null, ptr %3, align 8
  br label %79

28:                                               ; preds = %2
  store i32 0, ptr %9, align 4
  br label %29

29:                                               ; preds = %70, %28
  %30 = load i32, ptr %9, align 4
  %31 = load i32, ptr %7, align 4
  %32 = icmp ult i32 %30, %31
  br i1 %32, label %33, label %73

33:                                               ; preds = %29
  %34 = load ptr, ptr %10, align 8
  %35 = getelementptr inbounds i8, ptr %34, i64 2
  store ptr %35, ptr %10, align 8
  %36 = load ptr, ptr %10, align 8
  %37 = getelementptr inbounds i8, ptr %36, i64 -2
  %38 = getelementptr inbounds i8, ptr %37, i64 0
  %39 = load i8, ptr %38, align 1
  %40 = zext i8 %39 to i16
  %41 = zext i16 %40 to i32
  %42 = shl i32 %41, 8
  %43 = load ptr, ptr %10, align 8
  %44 = getelementptr inbounds i8, ptr %43, i64 -2
  %45 = getelementptr inbounds i8, ptr %44, i64 1
  %46 = load i8, ptr %45, align 1
  %47 = zext i8 %46 to i16
  %48 = zext i16 %47 to i32
  %49 = shl i32 %48, 0
  %50 = or i32 %42, %49
  %51 = trunc i32 %50 to i16
  %52 = zext i16 %51 to i32
  store i32 %52, ptr %8, align 4
  %53 = load i32, ptr %8, align 4
  %54 = icmp eq i32 %53, 0
  br i1 %54, label %55, label %56

55:                                               ; preds = %33
  br label %73

56:                                               ; preds = %33
  %57 = load i32, ptr %8, align 4
  %58 = icmp ult i32 %57, 32
  br i1 %58, label %62, label %59

59:                                               ; preds = %56
  %60 = load i32, ptr %8, align 4
  %61 = icmp ugt i32 %60, 127
  br i1 %61, label %62, label %63

62:                                               ; preds = %59, %56
  store i32 63, ptr %8, align 4
  br label %63

63:                                               ; preds = %62, %59
  %64 = load i32, ptr %8, align 4
  %65 = trunc i32 %64 to i8
  %66 = load ptr, ptr %6, align 8
  %67 = load i32, ptr %9, align 4
  %68 = zext i32 %67 to i64
  %69 = getelementptr inbounds i8, ptr %66, i64 %68
  store i8 %65, ptr %69, align 1
  br label %70

70:                                               ; preds = %63
  %71 = load i32, ptr %9, align 4
  %72 = add i32 %71, 1
  store i32 %72, ptr %9, align 4
  br label %29, !llvm.loop !121

73:                                               ; preds = %55, %29
  %74 = load ptr, ptr %6, align 8
  %75 = load i32, ptr %9, align 4
  %76 = zext i32 %75 to i64
  %77 = getelementptr inbounds i8, ptr %74, i64 %76
  store i8 0, ptr %77, align 1
  %78 = load ptr, ptr %6, align 8
  store ptr %78, ptr %3, align 8
  br label %79

79:                                               ; preds = %73, %27
  %80 = load ptr, ptr %3, align 8
  ret ptr %80
}