; Function Attrs: nounwind uwtable
define internal ptr @tt_name_ascii_from_utf16(ptr nocapture noundef readonly %0, ptr noundef %1) unnamed_addr #0 {
  %3 = alloca i32, align 4
  %4 = getelementptr inbounds i8, ptr %0, i64 24
  %5 = load ptr, ptr %4, align 8
  %6 = getelementptr inbounds i8, ptr %0, i64 8
  %7 = load i16, ptr %6, align 8
  %8 = lshr i16 %7, 1
  %9 = zext nneg i16 %8 to i32
  %10 = add nuw nsw i32 %9, 1
  %11 = zext nneg i32 %10 to i64
  %12 = call ptr @ft_mem_qrealloc(ptr noundef %1, i64 noundef 1, i64 noundef 0, i64 noundef %11, ptr noundef null, ptr noundef nonnull %3) #26
  %13 = load i32, ptr %3, align 4
  %.not = icmp eq i32 %13, 0
  br i1 %.not, label %.preheader, label %30

.preheader:                                       ; preds = %2
  %.not27 = icmp ult i16 %7, 2
  br i1 %.not27, label %._crit_edge, label %.lr.ph.preheader

.lr.ph.preheader:                                 ; preds = %.preheader
  %wide.trip.count = zext nneg i16 %8 to i64
  br label %.lr.ph

.lr.ph:                                           ; preds = %.lr.ph.preheader, %22
  %indvars.iv = phi i64 [ 0, %.lr.ph.preheader ], [ %indvars.iv.next, %22 ]
  %.024 = phi ptr [ %5, %.lr.ph.preheader ], [ %23, %22 ]
  %14 = load i8, ptr %.024, align 1
  %15 = zext i8 %14 to i32
  %16 = shl nuw nsw i32 %15, 8
  %17 = getelementptr inbounds i8, ptr %.024, i64 1
  %18 = load i8, ptr %17, align 1
  %19 = zext i8 %18 to i32
  %20 = or disjoint i32 %16, %19
  %21 = icmp eq i32 %20, 0
  br i1 %21, label %._crit_edge.loopexit.split.loop.exit, label %22

22:                                               ; preds = %.lr.ph
  %23 = getelementptr inbounds i8, ptr %.024, i64 2
  %24 = add nsw i32 %20, -128
  %or.cond = icmp ult i32 %24, -96
  %25 = select i1 %or.cond, i8 63, i8 %18
  %26 = getelementptr inbounds i8, ptr %12, i64 %indvars.iv
  store i8 %25, ptr %26, align 1
  %indvars.iv.next = add nuw nsw i64 %indvars.iv, 1
  %exitcond.not = icmp eq i64 %indvars.iv.next, %wide.trip.count
  br i1 %exitcond.not, label %._crit_edge.loopexit, label %.lr.ph, !llvm.loop !138

._crit_edge.loopexit.split.loop.exit:             ; preds = %.lr.ph
  %27 = trunc nuw nsw i64 %indvars.iv to i32
  br label %._crit_edge.loopexit

._crit_edge.loopexit:                             ; preds = %22, %._crit_edge.loopexit.split.loop.exit
  %.020.lcssa.ph = phi i32 [ %27, %._crit_edge.loopexit.split.loop.exit ], [ %9, %22 ]
  %28 = zext nneg i32 %.020.lcssa.ph to i64
  br label %._crit_edge

._crit_edge:                                      ; preds = %._crit_edge.loopexit, %.preheader
  %.020.lcssa = phi i64 [ 0, %.preheader ], [ %28, %._crit_edge.loopexit ]
  %29 = getelementptr inbounds i8, ptr %12, i64 %.020.lcssa
  store i8 0, ptr %29, align 1
  br label %30

30:                                               ; preds = %2, %._crit_edge
  %.021 = phi ptr [ %12, %._crit_edge ], [ null, %2 ]
  ret ptr %.021
}